; ModuleID = 'source-C-CXX/27/619.c'
source_filename = "source-C-CXX/27/619.c"
target datalayout = "e-m:e-p270:32:32-p271:32:32-p272:64:64-i64:64-f80:128-n8:16:32:64-S128"
target triple = "x86_64-pc-linux-gnu"

@.str = private unnamed_addr constant [4 x i8] c"%d,\00", align 1
@.str.1 = private unnamed_addr constant [3 x i8] c"%d\00", align 1

; Function Attrs: nounwind sspstrong uwtable
define dso_local void @main() local_unnamed_addr #0 {
  %1 = alloca [10000 x i8], align 16
  %2 = getelementptr inbounds [10000 x i8], [10000 x i8]* %1, i64 0, i64 0
  call void @llvm.lifetime.start.p0i8(i64 10000, i8* nonnull %2) #5
  %3 = call i32 (i8*, ...) bitcast (i32 (...)* @gets to i32 (i8*, ...)*)(i8* nonnull %2) #5
  %4 = call i64 @strlen(i8* noundef nonnull %2) #6
  %5 = trunc i64 %4 to i32
  %6 = shl i64 %4, 32
  %7 = ashr exact i64 %6, 32
  %8 = getelementptr inbounds [10000 x i8], [10000 x i8]* %1, i64 0, i64 %7
  store i8 32, i8* %8, align 1, !tbaa !5
  %9 = icmp slt i32 %5, 0
  br i1 %9, label %37, label %10

10:                                               ; preds = %0
  %11 = and i64 %4, 4294967295
  %12 = add i64 %4, 1
  %13 = and i64 %12, 4294967295
  br label %14

14:                                               ; preds = %10, %33
  %15 = phi i64 [ 0, %10 ], [ %35, %33 ]
  %16 = phi i32 [ 0, %10 ], [ %34, %33 ]
  %17 = getelementptr inbounds [10000 x i8], [10000 x i8]* %1, i64 0, i64 %15
  %18 = load i8, i8* %17, align 1, !tbaa !5
  %19 = icmp eq i8 %18, 32
  br i1 %19, label %22, label %20

20:                                               ; preds = %14
  %21 = add nsw i32 %16, 1
  br label %33

22:                                               ; preds = %14
  %23 = icmp eq i64 %15, %11
  br i1 %23, label %31, label %24

24:                                               ; preds = %22
  %25 = add nsw i64 %15, -1
  %26 = getelementptr inbounds [10000 x i8], [10000 x i8]* %1, i64 0, i64 %25
  %27 = load i8, i8* %26, align 1, !tbaa !5
  %28 = icmp eq i8 %27, 32
  br i1 %28, label %33, label %29

29:                                               ; preds = %24
  %30 = call i32 (i8*, ...) @printf(i8* nonnull dereferenceable(1) getelementptr inbounds ([4 x i8], [4 x i8]* @.str, i64 0, i64 0), i32 %16)
  br label %33

31:                                               ; preds = %22
  %32 = call i32 (i8*, ...) @printf(i8* nonnull dereferenceable(1) getelementptr inbounds ([3 x i8], [3 x i8]* @.str.1, i64 0, i64 0), i32 %16)
  br label %33

33:                                               ; preds = %24, %20, %31, %29
  %34 = phi i32 [ %21, %20 ], [ 0, %29 ], [ %16, %31 ], [ %16, %24 ]
  %35 = add nuw nsw i64 %15, 1
  %36 = icmp eq i64 %35, %13
  br i1 %36, label %37, label %14, !llvm.loop !8

37:                                               ; preds = %33, %0
  call void @llvm.lifetime.end.p0i8(i64 10000, i8* nonnull %2) #5
  ret void
}

; Function Attrs: argmemonly mustprogress nofree nosync nounwind willreturn
declare void @llvm.lifetime.start.p0i8(i64 immarg, i8* nocapture) #1

declare i32 @gets(...) local_unnamed_addr #2

; Function Attrs: argmemonly mustprogress nofree nounwind readonly willreturn
declare i64 @strlen(i8* nocapture) local_unnamed_addr #3

; Function Attrs: nofree nounwind
declare noundef i32 @printf(i8* nocapture noundef readonly, ...) local_unnamed_addr #4

; Function Attrs: argmemonly mustprogress nofree nosync nounwind willreturn
declare void @llvm.lifetime.end.p0i8(i64 immarg, i8* nocapture) #1


!llvm.module.flags = !{!0, !1, !2, !3}
!llvm.ident = !{!4}

!0 = !{i32 1, !"wchar_size", i32 4}
!1 = !{i32 7, !"PIC Level", i32 2}
!2 = !{i32 7, !"PIE Level", i32 2}
!3 = !{i32 7, !"uwtable", i32 1}
!4 = !{!"clang version 13.0.0"}
!5 = !{!6, !6, i64 0}
!6 = !{!"omnipotent char", !7, i64 0}
!7 = !{!"Simple C/C++ TBAA"}
!8 = distinct !{!8, !9}
!9 = !{!"llvm.loop.mustprogress"}
